target datalayout = "e-m:e-p270:32:32-p271:32:32-p272:64:64-i64:64-i128:128-f80:128-n8:16:32:64-S128"
target triple = "x86_64-pc-linux-gnu"

%class.anon = type { i8 }

@_ZZN3nix23userNamespacesSupportedEvE3res = internal global i8 0, align 1
@_ZGVZN3nix23userNamespacesSupportedEvE3res = internal global i64 0, align 8

; Function Attrs: mustprogress uwtable
define noundef zeroext i1 @_ZN3nix23userNamespacesSupportedEv() #3 personality ptr @__gxx_personality_v0 {
  %1 = alloca %class.anon, align 1
  %2 = alloca ptr, align 8
  %3 = alloca i32, align 4
  %4 = load atomic i8, ptr @_ZGVZN3nix23userNamespacesSupportedEvE3res acquire, align 8
  %5 = icmp eq i8 %4, 0
  br i1 %5, label %6, label %13, !prof !4

6:                                                ; preds = %0
  %7 = call i32 @__cxa_guard_acquire(ptr @_ZGVZN3nix23userNamespacesSupportedEvE3res) #1
  %8 = icmp ne i32 %7, 0
  br i1 %8, label %9, label %13

9:                                                ; preds = %6
  %10 = invoke noundef zeroext i1 @"_ZZN3nix23userNamespacesSupportedEvENK3$_0clEv"(ptr noundef nonnull align 1 dereferenceable(1) %1)
          to label %11 unwind label %16

11:                                               ; preds = %9
  %12 = zext i1 %10 to i8
  store i8 %12, ptr @_ZZN3nix23userNamespacesSupportedEvE3res, align 1
  call void @__cxa_guard_release(ptr @_ZGVZN3nix23userNamespacesSupportedEvE3res) #1
  br label %13

13:                                               ; preds = %11, %6, %0
  %14 = load i8, ptr @_ZZN3nix23userNamespacesSupportedEvE3res, align 1
  %15 = trunc i8 %14 to i1
  ret i1 %15

16:                                               ; preds = %9
  %17 = landingpad { ptr, i32 }
          cleanup
  %18 = extractvalue { ptr, i32 } %17, 0
  store ptr %18, ptr %2, align 8
  %19 = extractvalue { ptr, i32 } %17, 1
  store i32 %19, ptr %3, align 4
  call void @__cxa_guard_abort(ptr @_ZGVZN3nix23userNamespacesSupportedEvE3res) #1
  br label %20

20:                                               ; preds = %16
  %21 = load ptr, ptr %2, align 8
  %22 = load i32, ptr %3, align 4
  %23 = insertvalue { ptr, i32 } poison, ptr %21, 0
  %24 = insertvalue { ptr, i32 } %23, i32 %22, 1
  resume { ptr, i32 } %24
}